target datalayout = "e-m:e-p270:32:32-p271:32:32-p272:64:64-i64:64-i128:128-f80:128-n8:16:32:64-S128"
target triple = "x86_64-pc-linux-gnu"

; Function Attrs: nounwind uwtable
define internal i64 @exp_mod_get_window_size(i64 noundef %0) #0 {
  %2 = alloca i64, align 8
  store i64 %0, ptr %2, align 8, !tbaa !3
  %3 = load i64, ptr %2, align 8, !tbaa !3
  %4 = icmp ugt i64 %3, 79
  %5 = select i1 %4, i32 3, i32 1
  %6 = sext i32 %5 to i64
  ret i64 %6
}

; Function Attrs: nounwind uwtable
define hidden i64 @mbedtls_mpi_core_exp_mod_working_limbs(i64 noundef %0, i64 noundef %1) #0 {
  %3 = alloca i64, align 8
  %4 = alloca i64, align 8
  %5 = alloca i64, align 8
  %6 = alloca i64, align 8
  %7 = alloca i64, align 8
  %8 = alloca i64, align 8
  %9 = alloca i64, align 8
  store i64 %0, ptr %3, align 8, !tbaa !3
  store i64 %1, ptr %4, align 8, !tbaa !3
  call void @llvm.lifetime.start.p0(i64 8, ptr %5) #7
  %10 = load i64, ptr %4, align 8, !tbaa !3
  %11 = mul i64 %10, 64
  %12 = call i64 @exp_mod_get_window_size(i64 noundef %11)
  store i64 %12, ptr %5, align 8, !tbaa !3
  call void @llvm.lifetime.start.p0(i64 8, ptr %6) #7
  %13 = load i64, ptr %5, align 8, !tbaa !3
  %14 = shl i64 1, %13
  store i64 %14, ptr %6, align 8, !tbaa !3
  call void @llvm.lifetime.start.p0(i64 8, ptr %7) #7
  %15 = load i64, ptr %6, align 8, !tbaa !3
  %16 = load i64, ptr %3, align 8, !tbaa !3
  %17 = mul i64 %15, %16
  store i64 %17, ptr %7, align 8, !tbaa !3
  call void @llvm.lifetime.start.p0(i64 8, ptr %8) #7
  %18 = load i64, ptr %3, align 8, !tbaa !3
  store i64 %18, ptr %8, align 8, !tbaa !3
  call void @llvm.lifetime.start.p0(i64 8, ptr %9) #7
  %19 = load i64, ptr %3, align 8, !tbaa !3
  %20 = mul i64 2, %19
  %21 = add i64 %20, 1
  store i64 %21, ptr %9, align 8, !tbaa !3
  %22 = load i64, ptr %7, align 8, !tbaa !3
  %23 = load i64, ptr %8, align 8, !tbaa !3
  %24 = add i64 %22, %23
  %25 = load i64, ptr %9, align 8, !tbaa !3
  %26 = add i64 %24, %25
  call void @llvm.lifetime.end.p0(i64 8, ptr %9) #7
  call void @llvm.lifetime.end.p0(i64 8, ptr %8) #7
  call void @llvm.lifetime.end.p0(i64 8, ptr %7) #7
  call void @llvm.lifetime.end.p0(i64 8, ptr %6) #7
  call void @llvm.lifetime.end.p0(i64 8, ptr %5) #7
  ret i64 %26
}