; Function Attrs: mustprogress nofree norecurse nosync nounwind willreturn memory(none) uwtable
define hidden i64 @mbedtls_mpi_core_exp_mod_working_limbs(i64 noundef %0, i64 noundef %1) local_unnamed_addr #0 {
  %3 = shl i64 %1, 6
  %4 = icmp ugt i64 %3, 79
  %5 = select i1 %4, i64 3, i64 1
  %6 = shl i64 %0, %5
  %7 = shl i64 %0, 1
  %8 = add i64 %0, 1
  %9 = add i64 %8, %7
  %10 = add i64 %9, %6
  ret i64 %10
}